; ModuleID = '23/1208.c'
source_filename = "23/1208.c"
target datalayout = "e-m:e-p270:32:32-p271:32:32-p272:64:64-i64:64-f80:128-n8:16:32:64-S128"
target triple = "x86_64-pc-linux-gnu"

@.str = private unnamed_addr constant [3 x i8] c"%s\00", align 1
@.str.1 = private unnamed_addr constant [4 x i8] c"%s\0A\00", align 1
@.str.2 = private unnamed_addr constant [4 x i8] c"%s \00", align 1

; Function Attrs: noinline nounwind uwtable
define dso_local void @main() #0 {
  %1 = alloca [100 x i8], align 16
  %2 = alloca [200 x [100 x i8]], align 16
  %3 = alloca i8, align 1
  %4 = alloca i32, align 4
  %5 = alloca i32, align 4
  store i32 0, i32* %4, align 4
  store i32 0, i32* %5, align 4
  %6 = getelementptr inbounds [100 x i8], [100 x i8]* %1, i64 0, i64 0
  %7 = call i32 (i8*, ...) @__isoc99_scanf(i8* getelementptr inbounds ([3 x i8], [3 x i8]* @.str, i64 0, i64 0), i8* %6)
  %8 = load i32, i32* %4, align 4
  %9 = add nsw i32 %8, 1
  store i32 %9, i32* %4, align 4
  %10 = sext i32 %8 to i64
  %11 = getelementptr inbounds [200 x [100 x i8]], [200 x [100 x i8]]* %2, i64 0, i64 %10
  %12 = getelementptr inbounds [100 x i8], [100 x i8]* %11, i64 0, i64 0
  %13 = getelementptr inbounds [100 x i8], [100 x i8]* %1, i64 0, i64 0
  %14 = call i8* @strcpy(i8* %12, i8* %13) #3
  br label %15

15:                                               ; preds = %20, %0
  %16 = call i32 @getchar()
  %17 = trunc i32 %16 to i8
  store i8 %17, i8* %3, align 1
  %18 = sext i8 %17 to i32
  %19 = icmp ne i32 %18, 10
  br i1 %19, label %20, label %30

20:                                               ; preds = %15
  %21 = getelementptr inbounds [100 x i8], [100 x i8]* %1, i64 0, i64 0
  %22 = call i32 (i8*, ...) @__isoc99_scanf(i8* getelementptr inbounds ([3 x i8], [3 x i8]* @.str, i64 0, i64 0), i8* %21)
  %23 = load i32, i32* %4, align 4
  %24 = add nsw i32 %23, 1
  store i32 %24, i32* %4, align 4
  %25 = sext i32 %23 to i64
  %26 = getelementptr inbounds [200 x [100 x i8]], [200 x [100 x i8]]* %2, i64 0, i64 %25
  %27 = getelementptr inbounds [100 x i8], [100 x i8]* %26, i64 0, i64 0
  %28 = getelementptr inbounds [100 x i8], [100 x i8]* %1, i64 0, i64 0
  %29 = call i8* @strcpy(i8* %27, i8* %28) #3
  br label %15

30:                                               ; preds = %15
  %31 = load i32, i32* %4, align 4
  %32 = sub nsw i32 %31, 1
  store i32 %32, i32* %5, align 4
  br label %33

33:                                               ; preds = %50, %30
  %34 = load i32, i32* %5, align 4
  %35 = icmp sge i32 %34, 0
  br i1 %35, label %36, label %53

36:                                               ; preds = %33
  %37 = load i32, i32* %5, align 4
  %38 = icmp eq i32 %37, 0
  br i1 %38, label %39, label %43

39:                                               ; preds = %36
  %40 = getelementptr inbounds [200 x [100 x i8]], [200 x [100 x i8]]* %2, i64 0, i64 0
  %41 = getelementptr inbounds [100 x i8], [100 x i8]* %40, i64 0, i64 0
  %42 = call i32 (i8*, ...) @printf(i8* getelementptr inbounds ([4 x i8], [4 x i8]* @.str.1, i64 0, i64 0), i8* %41)
  br label %49

43:                                               ; preds = %36
  %44 = load i32, i32* %5, align 4
  %45 = sext i32 %44 to i64
  %46 = getelementptr inbounds [200 x [100 x i8]], [200 x [100 x i8]]* %2, i64 0, i64 %45
  %47 = getelementptr inbounds [100 x i8], [100 x i8]* %46, i64 0, i64 0
  %48 = call i32 (i8*, ...) @printf(i8* getelementptr inbounds ([4 x i8], [4 x i8]* @.str.2, i64 0, i64 0), i8* %47)
  br label %49

49:                                               ; preds = %43, %39
  br label %50

50:                                               ; preds = %49
  %51 = load i32, i32* %5, align 4
  %52 = add nsw i32 %51, -1
  store i32 %52, i32* %5, align 4
  br label %33

53:                                               ; preds = %33
  ret void
}

declare dso_local i32 @__isoc99_scanf(i8*, ...) #1

; Function Attrs: nounwind
declare dso_local i8* @strcpy(i8*, i8*) #2

declare dso_local i32 @getchar() #1

declare dso_local i32 @printf(i8*, ...) #1


!llvm.module.flags = !{!0}
!llvm.ident = !{!1}

!0 = !{i32 1, !"wchar_size", i32 4}
!1 = !{!"clang version 10.0.0-4ubuntu1 "}
